; Function Attrs: mustprogress uwtable
define noundef i32 @_ZNK6icu_7522UIterCollationIterator9getOffsetEv(ptr nocapture noundef nonnull readonly align 8 dereferenceable(400) %this) unnamed_addr #1 align 2 {
entry:
  %iter = getelementptr inbounds i8, ptr %this, i64 392
  %0 = load ptr, ptr %iter, align 8
  %getIndex = getelementptr inbounds i8, ptr %0, i64 32
  %1 = load ptr, ptr %getIndex, align 8
  %call = tail call noundef i32 %1(ptr noundef %0, i32 noundef 1)
  ret i32 %call
}